target datalayout = "e-m:e-p270:32:32-p271:32:32-p272:64:64-i64:64-i128:128-f80:128-n8:16:32:64-S128"
target triple = "x86_64-unknown-linux-gnu"

@.str.10 = private unnamed_addr constant [10 x i8] c"<unknown>\00", align 1
@.str.28 = private unnamed_addr constant [5 x i8] c"read\00", align 1
@.str.29 = private unnamed_addr constant [6 x i8] c"write\00", align 1
@.str.30 = private unnamed_addr constant [11 x i8] c"disconnect\00", align 1
@.str.31 = private unnamed_addr constant [6 x i8] c"flush\00", align 1
@.str.32 = private unnamed_addr constant [5 x i8] c"trim\00", align 1
@.str.33 = private unnamed_addr constant [6 x i8] c"cache\00", align 1
@.str.34 = private unnamed_addr constant [13 x i8] c"write zeroes\00", align 1
@.str.35 = private unnamed_addr constant [13 x i8] c"block status\00", align 1

; Function Attrs: nounwind sspstrong uwtable
define dso_local ptr @nbd_cmd_lookup(i16 noundef zeroext %cmd) #0 {
entry:
  %retval = alloca ptr, align 8
  %cmd.addr = alloca i16, align 2
  store i16 %cmd, ptr %cmd.addr, align 2
  %0 = load i16, ptr %cmd.addr, align 2
  %conv = zext i16 %0 to i32
  switch i32 %conv, label %sw.default [
    i32 0, label %sw.bb
    i32 1, label %sw.bb1
    i32 2, label %sw.bb2
    i32 3, label %sw.bb3
    i32 4, label %sw.bb4
    i32 5, label %sw.bb5
    i32 6, label %sw.bb6
    i32 7, label %sw.bb7
  ]

sw.bb:                                            ; preds = %entry
  store ptr @.str.28, ptr %retval, align 8
  br label %return

sw.bb1:                                           ; preds = %entry
  store ptr @.str.29, ptr %retval, align 8
  br label %return

sw.bb2:                                           ; preds = %entry
  store ptr @.str.30, ptr %retval, align 8
  br label %return

sw.bb3:                                           ; preds = %entry
  store ptr @.str.31, ptr %retval, align 8
  br label %return

sw.bb4:                                           ; preds = %entry
  store ptr @.str.32, ptr %retval, align 8
  br label %return

sw.bb5:                                           ; preds = %entry
  store ptr @.str.33, ptr %retval, align 8
  br label %return

sw.bb6:                                           ; preds = %entry
  store ptr @.str.34, ptr %retval, align 8
  br label %return

sw.bb7:                                           ; preds = %entry
  store ptr @.str.35, ptr %retval, align 8
  br label %return

sw.default:                                       ; preds = %entry
  store ptr @.str.10, ptr %retval, align 8
  br label %return

return:                                           ; preds = %sw.default, %sw.bb7, %sw.bb6, %sw.bb5, %sw.bb4, %sw.bb3, %sw.bb2, %sw.bb1, %sw.bb
  %1 = load ptr, ptr %retval, align 8
  ret ptr %1
}